; Function Attrs: nounwind sspstrong uwtable
define internal void @compare_sec_rs_finalize(ptr noundef %sec_rs) #0 {
entry:
  %_now.i.i = alloca %struct.timeval, align 8
  %conn = alloca ptr, align 8
  %add.ptr = getelementptr i8, ptr %sec_rs, i64 -69960
  store ptr null, ptr %conn, align 8
  %call = call fastcc i32 @packet_enqueue(ptr noundef %add.ptr, i32 noundef 1, ptr noundef %conn)
  %tobool.not = icmp eq i32 %call, 0
  br i1 %tobool.not, label %if.else, label %if.then

if.then:                                          ; preds = %entry
  call void @llvm.lifetime.start.p0(i64 16, ptr nonnull %_now.i.i)
  %0 = load i32, ptr @trace_events_enabled_count, align 4
  %tobool.i.i = icmp ne i32 %0, 0
  %1 = load i16, ptr @_TRACE_COLO_COMPARE_MAIN_DSTATE, align 2
  %tobool4.i.i = icmp ne i16 %1, 0
  %or.cond.i.i = select i1 %tobool.i.i, i1 %tobool4.i.i, i1 false
  br i1 %or.cond.i.i, label %land.lhs.true5.i.i, label %trace_colo_compare_main.exit

land.lhs.true5.i.i:                               ; preds = %if.then
  %2 = load i32, ptr @qemu_loglevel, align 4
  %and.i.i.i = and i32 %2, 32768
  %cmp.i.not.i.i = icmp eq i32 %and.i.i.i, 0
  br i1 %cmp.i.not.i.i, label %trace_colo_compare_main.exit, label %if.then.i.i

if.then.i.i:                                      ; preds = %land.lhs.true5.i.i
  %3 = load i8, ptr @message_with_timestamp, align 1
  %tobool7.i.i = trunc i8 %3 to i1
  br i1 %tobool7.i.i, label %if.then8.i.i, label %if.else.i.i

if.then8.i.i:                                     ; preds = %if.then.i.i
  %call9.i.i = call i32 @gettimeofday(ptr noundef nonnull %_now.i.i, ptr noundef null) #16
  %call10.i.i = tail call i32 @qemu_get_thread_id() #16
  %4 = load i64, ptr %_now.i.i, align 8
  %tv_usec.i.i = getelementptr inbounds nuw i8, ptr %_now.i.i, i64 8
  %5 = load i64, ptr %tv_usec.i.i, align 8
  tail call void (ptr, ...) @qemu_log(ptr noundef nonnull @.str.29, i32 noundef %call10.i.i, i64 noundef %4, i64 noundef %5, ptr noundef nonnull @.str.55) #16
  br label %trace_colo_compare_main.exit

if.else.i.i:                                      ; preds = %if.then.i.i
  tail call void (ptr, ...) @qemu_log(ptr noundef nonnull @.str.30, ptr noundef nonnull @.str.55) #16
  br label %trace_colo_compare_main.exit

trace_colo_compare_main.exit:                     ; preds = %if.then, %land.lhs.true5.i.i, %if.then8.i.i, %if.else.i.i
  call void @llvm.lifetime.end.p0(i64 16, ptr nonnull %_now.i.i)
  br label %if.end

if.else:                                          ; preds = %entry
  %6 = load ptr, ptr %conn, align 8
  tail call fastcc void @colo_compare_connection(ptr noundef %6, ptr noundef %add.ptr)
  br label %if.end

if.end:                                           ; preds = %if.else, %trace_colo_compare_main.exit
  ret void
}